#include <math.h>
#include <stdio.h>
#include <stdlib.h>
#include <string.h>

int main()
{
    int n,i,j,m,k,o,q;
    scanf("%d",&n);

     if (n<5)
    {
    printf("empty");
    }
    else
    {
        for (i=3;i<=n-2;i++)
    {
        m=(int)sqrt(i);
        for(j=2;j<=m;j++)
       {
        if(i%j==0)
        break;
        }

        if(j==m+1)
        {
            k=i+2;
           {  o=(int)sqrt(k);
            for(q=2;q<=o;q++)
            {
                if(k%q==0)
                break;
            }
            if(q==o+1)
            {
                printf("%d %d\n",i,k);
            }
        }
        }
    }
        }

    return 0;
    }
