; ModuleID = '60/672.c'
source_filename = "60/672.c"
target datalayout = "e-m:e-p270:32:32-p271:32:32-p272:64:64-i64:64-f80:128-n8:16:32:64-S128"
target triple = "x86_64-pc-linux-gnu"

@.str = private unnamed_addr constant [3 x i8] c"%d\00", align 1
@.str.1 = private unnamed_addr constant [6 x i8] c"empty\00", align 1
@.str.2 = private unnamed_addr constant [7 x i8] c"%d %d\0A\00", align 1

; Function Attrs: noinline nounwind uwtable
define dso_local i32 @main() #0 {
  %1 = alloca i32, align 4
  %2 = alloca i32, align 4
  %3 = alloca i32, align 4
  %4 = alloca i32, align 4
  %5 = alloca i32, align 4
  %6 = alloca i32, align 4
  %7 = alloca i32, align 4
  %8 = alloca i32, align 4
  store i32 0, i32* %1, align 4
  %9 = call i32 (i8*, ...) @__isoc99_scanf(i8* getelementptr inbounds ([3 x i8], [3 x i8]* @.str, i64 0, i64 0), i32* %2)
  %10 = load i32, i32* %2, align 4
  %11 = icmp slt i32 %10, 5
  br i1 %11, label %12, label %14

12:                                               ; preds = %0
  %13 = call i32 (i8*, ...) @printf(i8* getelementptr inbounds ([6 x i8], [6 x i8]* @.str.1, i64 0, i64 0))
  br label %80

14:                                               ; preds = %0
  store i32 3, i32* %3, align 4
  br label %15

15:                                               ; preds = %76, %14
  %16 = load i32, i32* %3, align 4
  %17 = load i32, i32* %2, align 4
  %18 = sub nsw i32 %17, 2
  %19 = icmp sle i32 %16, %18
  br i1 %19, label %20, label %79

20:                                               ; preds = %15
  %21 = load i32, i32* %3, align 4
  %22 = sitofp i32 %21 to double
  %23 = call double @sqrt(double %22) #3
  %24 = fptosi double %23 to i32
  store i32 %24, i32* %5, align 4
  store i32 2, i32* %4, align 4
  br label %25

25:                                               ; preds = %36, %20
  %26 = load i32, i32* %4, align 4
  %27 = load i32, i32* %5, align 4
  %28 = icmp sle i32 %26, %27
  br i1 %28, label %29, label %39

29:                                               ; preds = %25
  %30 = load i32, i32* %3, align 4
  %31 = load i32, i32* %4, align 4
  %32 = srem i32 %30, %31
  %33 = icmp eq i32 %32, 0
  br i1 %33, label %34, label %35

34:                                               ; preds = %29
  br label %39

35:                                               ; preds = %29
  br label %36

36:                                               ; preds = %35
  %37 = load i32, i32* %4, align 4
  %38 = add nsw i32 %37, 1
  store i32 %38, i32* %4, align 4
  br label %25

39:                                               ; preds = %34, %25
  %40 = load i32, i32* %4, align 4
  %41 = load i32, i32* %5, align 4
  %42 = add nsw i32 %41, 1
  %43 = icmp eq i32 %40, %42
  br i1 %43, label %44, label %75

44:                                               ; preds = %39
  %45 = load i32, i32* %3, align 4
  %46 = add nsw i32 %45, 2
  store i32 %46, i32* %6, align 4
  %47 = load i32, i32* %6, align 4
  %48 = sitofp i32 %47 to double
  %49 = call double @sqrt(double %48) #3
  %50 = fptosi double %49 to i32
  store i32 %50, i32* %7, align 4
  store i32 2, i32* %8, align 4
  br label %51

51:                                               ; preds = %62, %44
  %52 = load i32, i32* %8, align 4
  %53 = load i32, i32* %7, align 4
  %54 = icmp sle i32 %52, %53
  br i1 %54, label %55, label %65

55:                                               ; preds = %51
  %56 = load i32, i32* %6, align 4
  %57 = load i32, i32* %8, align 4
  %58 = srem i32 %56, %57
  %59 = icmp eq i32 %58, 0
  br i1 %59, label %60, label %61

60:                                               ; preds = %55
  br label %65

61:                                               ; preds = %55
  br label %62

62:                                               ; preds = %61
  %63 = load i32, i32* %8, align 4
  %64 = add nsw i32 %63, 1
  store i32 %64, i32* %8, align 4
  br label %51

65:                                               ; preds = %60, %51
  %66 = load i32, i32* %8, align 4
  %67 = load i32, i32* %7, align 4
  %68 = add nsw i32 %67, 1
  %69 = icmp eq i32 %66, %68
  br i1 %69, label %70, label %74

70:                                               ; preds = %65
  %71 = load i32, i32* %3, align 4
  %72 = load i32, i32* %6, align 4
  %73 = call i32 (i8*, ...) @printf(i8* getelementptr inbounds ([7 x i8], [7 x i8]* @.str.2, i64 0, i64 0), i32 %71, i32 %72)
  br label %74

74:                                               ; preds = %70, %65
  br label %75

75:                                               ; preds = %74, %39
  br label %76

76:                                               ; preds = %75
  %77 = load i32, i32* %3, align 4
  %78 = add nsw i32 %77, 1
  store i32 %78, i32* %3, align 4
  br label %15

79:                                               ; preds = %15
  br label %80

80:                                               ; preds = %79, %12
  ret i32 0
}

declare dso_local i32 @__isoc99_scanf(i8*, ...) #1

declare dso_local i32 @printf(i8*, ...) #1

; Function Attrs: nounwind
declare dso_local double @sqrt(double) #2


!llvm.module.flags = !{!0}
!llvm.ident = !{!1}

!0 = !{i32 1, !"wchar_size", i32 4}
!1 = !{!"clang version 10.0.0-4ubuntu1 "}
